; Function Attrs: mustprogress uwtable
define noundef zeroext i1 @_ZN10CmdExtract11CheckUnpVerER7ArchivePKw(ptr nocapture noundef nonnull readnone align 8 dereferenceable(16800) %0, ptr noundef nonnull align 8 dereferenceable(57108) %1, ptr noundef %2) local_unnamed_addr #0 align 2 {
  %4 = alloca %class.uiMsgStore, align 8
  %5 = getelementptr inbounds i8, ptr %1, i64 48840
  %6 = load i32, ptr %5, align 8
  %7 = icmp eq i32 %6, 3
  %8 = getelementptr inbounds i8, ptr %1, i64 14004
  %9 = load i32, ptr %8, align 4
  %10 = icmp ult i32 %9, 51
  %11 = add i32 %9, -13
  %spec.select = icmp ult i32 %11, 17
  %.0 = select i1 %7, i1 %10, i1 %spec.select
  %12 = getelementptr inbounds i8, ptr %1, i64 14008
  %13 = load i8, ptr %12, align 8
  %14 = icmp eq i8 %13, 0
  %spec.select10.not = select i1 %14, i1 true, i1 %.0
  br i1 %spec.select10.not, label %22, label %15

15:                                               ; preds = %3
  %16 = getelementptr inbounds i8, ptr %1, i64 52
  tail call void @_ZN12ErrorHandler16UnknownMethodMsgEPKwS1_(ptr noundef nonnull align 4 dereferenceable(14) @ErrHandler, ptr noundef nonnull %16, ptr noundef %2)
  call void @llvm.lifetime.start.p0(i64 112, ptr nonnull %4)
  br label %17

17:                                               ; preds = %17, %15
  %indvars.iv.i.i = phi i64 [ 0, %15 ], [ %indvars.iv.next.i.i, %17 ]
  %18 = getelementptr inbounds [8 x ptr], ptr %4, i64 0, i64 %indvars.iv.i.i
  store ptr @.str, ptr %18, align 8
  %indvars.iv.next.i.i = add nuw nsw i64 %indvars.iv.i.i, 1
  %exitcond.not.i.i = icmp eq i64 %indvars.iv.next.i.i, 8
  br i1 %exitcond.not.i.i, label %_Z5uiMsgIJRA2048_wEEv14UIMESSAGE_CODEDpOT_.exit, label %17, !llvm.loop !10

_Z5uiMsgIJRA2048_wEEv14UIMESSAGE_CODEDpOT_.exit:  ; preds = %17
  %19 = getelementptr inbounds i8, ptr %4, i64 64
  %20 = getelementptr inbounds i8, ptr %4, i64 104
  call void @llvm.memset.p0.i64(ptr noundef nonnull align 8 dereferenceable(40) %19, i8 0, i64 40, i1 false)
  store i32 36, ptr %20, align 8
  %21 = getelementptr inbounds i8, ptr %4, i64 96
  store i32 1, ptr %21, align 8
  store ptr %16, ptr %4, align 8
  call void @_ZN10uiMsgStore3MsgEv(ptr noundef nonnull align 8 dereferenceable(108) %4)
  call void @llvm.lifetime.end.p0(i64 112, ptr nonnull %4)
  br label %22

22:                                               ; preds = %_Z5uiMsgIJRA2048_wEEv14UIMESSAGE_CODEDpOT_.exit, %3
  ret i1 %spec.select10.not
}